; Function Attrs: mustprogress uwtable
define noundef ptr @_ZNK6icu_7715RBBISymbolTable10lookupNodeERKNS_13UnicodeStringE(ptr noundef nonnull readonly align 8 captures(none) dereferenceable(108) %0, ptr noundef nonnull align 8 dereferenceable(64) %1) unnamed_addr #1 align 2 {
  %3 = getelementptr inbounds nuw i8, ptr %0, i64 16
  %4 = load ptr, ptr %3, align 8, !tbaa !28
  %5 = tail call ptr @uhash_get_77(ptr noundef %4, ptr noundef nonnull %1)
  %.not = icmp eq ptr %5, null
  br i1 %.not, label %9, label %6

6:                                                ; preds = %2
  %7 = getelementptr inbounds nuw i8, ptr %5, i64 72
  %8 = load ptr, ptr %7, align 8, !tbaa !30
  br label %9

9:                                                ; preds = %6, %2
  %.0 = phi ptr [ %8, %6 ], [ null, %2 ]
  ret ptr %.0
}